; Function Attrs: nounwind uwtable
define internal fastcc ptr @mi_large_huge_page_alloc(ptr noundef %0, i64 noundef range(i64 131073, -9223372036854775808) %1) unnamed_addr #1 {
  %3 = alloca i64, align 8
  %4 = tail call i64 @_mi_os_good_alloc_size(i64 noundef %1) #8
  %5 = icmp ugt i64 %4, 33554432
  br i1 %5, label %.thread, label %6

6:                                                ; preds = %2
  %7 = add nuw nsw i64 %4, 7
  %8 = lshr i64 %7, 3
  %9 = icmp samesign ult i64 %4, 9
  br i1 %9, label %28, label %10

10:                                               ; preds = %6
  %11 = icmp samesign ult i64 %4, 65
  br i1 %11, label %12, label %15

12:                                               ; preds = %10
  %13 = add nuw nsw i64 %8, 1
  %14 = and i64 %13, 30
  br label %28

15:                                               ; preds = %10
  %16 = icmp samesign ugt i64 %4, 131072
  br i1 %16, label %28, label %17

17:                                               ; preds = %15
  %18 = add nsw i64 %8, -1
  %19 = tail call range(i64 50, 61) i64 @llvm.ctlz.i64(i64 range(i64 8, 16384) %18, i1 true)
  %20 = shl nuw nsw i64 %19, 2
  %21 = xor i64 %20, 252
  %22 = sub nuw nsw i64 61, %19
  %23 = lshr i64 %18, %22
  %24 = and i64 %23, 3
  %25 = add nuw nsw i64 %21, 253
  %26 = add nuw nsw i64 %25, %24
  %27 = and i64 %26, 255
  br label %28

28:                                               ; preds = %17, %15, %12, %6
  %.0.i.i.i = phi i64 [ %14, %12 ], [ %27, %17 ], [ 1, %6 ], [ 73, %15 ]
  %29 = getelementptr inbounds nuw i8, ptr %0, i64 1040
  %30 = getelementptr inbounds nuw [75 x %struct.mi_page_queue_s], ptr %29, i64 0, i64 %.0.i.i.i
  %31 = tail call fastcc ptr @mi_page_fresh_alloc(ptr noundef %0, ptr noundef nonnull %30, i64 noundef %4)
  %.not = icmp eq ptr %31, null
  br i1 %.not, label %mi_page_usable_block_size.exit, label %35

.thread:                                          ; preds = %2
  %32 = tail call fastcc ptr @mi_page_fresh_alloc(ptr noundef %0, ptr noundef null, i64 noundef %4)
  %.not13 = icmp eq ptr %32, null
  br i1 %.not13, label %mi_page_usable_block_size.exit, label %33

33:                                               ; preds = %.thread
  %34 = getelementptr inbounds nuw i8, ptr %32, i64 48
  store atomic i64 0, ptr %34 release, align 8
  br label %35

35:                                               ; preds = %28, %33
  %36 = phi ptr [ %32, %33 ], [ %31, %28 ]
  %37 = getelementptr inbounds nuw i8, ptr %36, i64 28
  %38 = load i32, ptr %37, align 4, !tbaa !36
  %39 = icmp sgt i32 %38, -1
  br i1 %39, label %mi_page_usable_block_size.exit, label %40, !prof !34

40:                                               ; preds = %35
  call void @llvm.lifetime.start.p0(i64 8, ptr nonnull %3) #8
  %41 = ptrtoint ptr %36 to i64
  %42 = and i64 %41, -67108864
  %43 = inttoptr i64 %42 to ptr
  %44 = call ptr @_mi_segment_page_start(ptr noundef %43, ptr noundef nonnull %36, ptr noundef nonnull %3) #8
  call void @llvm.lifetime.end.p0(i64 8, ptr nonnull %3) #8
  br label %mi_page_usable_block_size.exit

mi_page_usable_block_size.exit:                   ; preds = %35, %40, %.thread, %28
  %45 = phi ptr [ null, %.thread ], [ null, %28 ], [ %36, %40 ], [ %36, %35 ]
  ret ptr %45
}